target datalayout = "e-m:e-p270:32:32-p271:32:32-p272:64:64-i64:64-i128:128-f80:128-n8:16:32:64-S128"
target triple = "x86_64-pc-linux-gnu"

%struct.JNINativeInterface_ = type { ptr, ptr, ptr, ptr, ptr, ptr, ptr, ptr, ptr, ptr, ptr, ptr, ptr, ptr, ptr, ptr, ptr, ptr, ptr, ptr, ptr, ptr, ptr, ptr, ptr, ptr, ptr, ptr, ptr, ptr, ptr, ptr, ptr, ptr, ptr, ptr, ptr, ptr, ptr, ptr, ptr, ptr, ptr, ptr, ptr, ptr, ptr, ptr, ptr, ptr, ptr, ptr, ptr, ptr, ptr, ptr, ptr, ptr, ptr, ptr, ptr, ptr, ptr, ptr, ptr, ptr, ptr, ptr, ptr, ptr, ptr, ptr, ptr, ptr, ptr, ptr, ptr, ptr, ptr, ptr, ptr, ptr, ptr, ptr, ptr, ptr, ptr, ptr, ptr, ptr, ptr, ptr, ptr, ptr, ptr, ptr, ptr, ptr, ptr, ptr, ptr, ptr, ptr, ptr, ptr, ptr, ptr, ptr, ptr, ptr, ptr, ptr, ptr, ptr, ptr, ptr, ptr, ptr, ptr, ptr, ptr, ptr, ptr, ptr, ptr, ptr, ptr, ptr, ptr, ptr, ptr, ptr, ptr, ptr, ptr, ptr, ptr, ptr, ptr, ptr, ptr, ptr, ptr, ptr, ptr, ptr, ptr, ptr, ptr, ptr, ptr, ptr, ptr, ptr, ptr, ptr, ptr, ptr, ptr, ptr, ptr, ptr, ptr, ptr, ptr, ptr, ptr, ptr, ptr, ptr, ptr, ptr, ptr, ptr, ptr, ptr, ptr, ptr, ptr, ptr, ptr, ptr, ptr, ptr, ptr, ptr, ptr, ptr, ptr, ptr, ptr, ptr, ptr, ptr, ptr, ptr, ptr, ptr, ptr, ptr, ptr, ptr, ptr, ptr, ptr, ptr, ptr, ptr, ptr, ptr, ptr, ptr, ptr, ptr, ptr, ptr, ptr, ptr, ptr, ptr, ptr, ptr, ptr, ptr, ptr, ptr, ptr, ptr, ptr, ptr, ptr, ptr, ptr, ptr, ptr }

@.str.6 = private unnamed_addr constant [27 x i8] c"sun/awt/X11/XEmbeddedFrame\00", align 1
@awt_SynthesizeWindowActivation.mid = internal global ptr null, align 8
@.str.11 = private unnamed_addr constant [27 x i8] c"synthesizeWindowActivation\00", align 1
@.str.12 = private unnamed_addr constant [5 x i8] c"(Z)V\00", align 1

; Function Attrs: nounwind uwtable
define void @awt_SynthesizeWindowActivation(ptr noundef %0, ptr noundef %1, i8 noundef zeroext %2) #0 {
  %4 = alloca ptr, align 8
  %5 = alloca ptr, align 8
  %6 = alloca i8, align 1
  %7 = alloca ptr, align 8
  store ptr %0, ptr %4, align 8
  store ptr %1, ptr %5, align 8
  store i8 %2, ptr %6, align 1
  %8 = load ptr, ptr @awt_SynthesizeWindowActivation.mid, align 8
  %9 = icmp eq ptr %8, null
  br i1 %9, label %10, label %36

10:                                               ; preds = %3
  %11 = load ptr, ptr %4, align 8
  %12 = load ptr, ptr %11, align 8
  %13 = getelementptr inbounds %struct.JNINativeInterface_, ptr %12, i32 0, i32 6
  %14 = load ptr, ptr %13, align 8
  %15 = load ptr, ptr %4, align 8
  %16 = call ptr %14(ptr noundef %15, ptr noundef @.str.6)
  store ptr %16, ptr %7, align 8
  br label %17

17:                                               ; preds = %10
  %18 = load ptr, ptr %7, align 8
  %19 = icmp eq ptr %18, null
  br i1 %19, label %20, label %21

20:                                               ; preds = %17
  br label %46

21:                                               ; preds = %17
  br label %22

22:                                               ; preds = %21
  %23 = load ptr, ptr %4, align 8
  %24 = load ptr, ptr %23, align 8
  %25 = getelementptr inbounds %struct.JNINativeInterface_, ptr %24, i32 0, i32 33
  %26 = load ptr, ptr %25, align 8
  %27 = load ptr, ptr %4, align 8
  %28 = load ptr, ptr %7, align 8
  %29 = call ptr %26(ptr noundef %27, ptr noundef %28, ptr noundef @.str.11, ptr noundef @.str.12)
  store ptr %29, ptr @awt_SynthesizeWindowActivation.mid, align 8
  br label %30

30:                                               ; preds = %22
  %31 = load ptr, ptr @awt_SynthesizeWindowActivation.mid, align 8
  %32 = icmp eq ptr %31, null
  br i1 %32, label %33, label %34

33:                                               ; preds = %30
  br label %46

34:                                               ; preds = %30
  br label %35

35:                                               ; preds = %34
  br label %36

36:                                               ; preds = %35, %3
  %37 = load ptr, ptr %4, align 8
  %38 = load ptr, ptr %37, align 8
  %39 = getelementptr inbounds %struct.JNINativeInterface_, ptr %38, i32 0, i32 61
  %40 = load ptr, ptr %39, align 8
  %41 = load ptr, ptr %4, align 8
  %42 = load ptr, ptr %5, align 8
  %43 = load ptr, ptr @awt_SynthesizeWindowActivation.mid, align 8
  %44 = load i8, ptr %6, align 1
  %45 = zext i8 %44 to i32
  call void (ptr, ptr, ptr, ...) %40(ptr noundef %41, ptr noundef %42, ptr noundef %43, i32 noundef %45)
  br label %46

46:                                               ; preds = %36, %33, %20
  ret void
}