; Function Attrs: nounwind uwtable
define void @awt_SynthesizeWindowActivation(ptr noundef %0, ptr noundef %1, i8 noundef zeroext %2) local_unnamed_addr #0 {
  %4 = load ptr, ptr @awt_SynthesizeWindowActivation.mid, align 8
  %5 = icmp eq ptr %4, null
  br i1 %5, label %6, label %18

6:                                                ; preds = %3
  %7 = load ptr, ptr %0, align 8
  %8 = getelementptr inbounds i8, ptr %7, i64 48
  %9 = load ptr, ptr %8, align 8
  %10 = tail call ptr %9(ptr noundef nonnull %0, ptr noundef nonnull @.str.6) #5
  %11 = icmp eq ptr %10, null
  br i1 %11, label %24, label %12

12:                                               ; preds = %6
  %13 = load ptr, ptr %0, align 8
  %14 = getelementptr inbounds i8, ptr %13, i64 264
  %15 = load ptr, ptr %14, align 8
  %16 = tail call ptr %15(ptr noundef nonnull %0, ptr noundef nonnull %10, ptr noundef nonnull @.str.11, ptr noundef nonnull @.str.12) #5
  store ptr %16, ptr @awt_SynthesizeWindowActivation.mid, align 8
  %17 = icmp eq ptr %16, null
  br i1 %17, label %24, label %18

18:                                               ; preds = %12, %3
  %19 = phi ptr [ %16, %12 ], [ %4, %3 ]
  %20 = load ptr, ptr %0, align 8
  %21 = getelementptr inbounds i8, ptr %20, i64 488
  %22 = load ptr, ptr %21, align 8
  %23 = zext i8 %2 to i32
  tail call void (ptr, ptr, ptr, ...) %22(ptr noundef nonnull %0, ptr noundef %1, ptr noundef nonnull %19, i32 noundef %23) #5
  br label %24

24:                                               ; preds = %12, %6, %18
  ret void
}